; Function Attrs: nounwind uwtable
define internal fastcc noalias nonnull ptr @_init_l_Lean_Core_instMonadLogCoreM___closed__5() unnamed_addr #1 {
  %1 = load ptr, ptr @l_Lean_Core_instMonadLogCoreM___closed__1, align 8, !tbaa !9
  %2 = load ptr, ptr @l_Lean_Core_instMonadRefCoreM___closed__1, align 8, !tbaa !9
  %3 = load ptr, ptr @l_Lean_Core_instMonadLogCoreM___closed__2, align 8, !tbaa !9
  %4 = load ptr, ptr @l_Lean_Core_instMonadLogCoreM___closed__3, align 8, !tbaa !9
  %5 = load ptr, ptr @l_Lean_Core_instMonadLogCoreM___closed__4, align 8, !tbaa !9
  tail call void @lean_inc_heartbeat() #7
  %6 = tail call noalias ptr @mi_malloc_small(i64 noundef 48) #7
  %7 = icmp eq ptr %6, null
  br i1 %7, label %8, label %lean_alloc_ctor.exit

8:                                                ; preds = %0
  tail call void @lean_internal_panic_out_of_memory() #8
  unreachable

lean_alloc_ctor.exit:                             ; preds = %0
  %9 = getelementptr inbounds nuw i8, ptr %6, i64 4
  store i32 1, ptr %6, align 4, !tbaa !4
  store i32 327728, ptr %9, align 4
  %10 = getelementptr inbounds nuw i8, ptr %6, i64 8
  store ptr %1, ptr %10, align 8, !tbaa !9
  %11 = getelementptr inbounds nuw i8, ptr %6, i64 16
  store ptr %2, ptr %11, align 8, !tbaa !9
  %12 = getelementptr inbounds nuw i8, ptr %6, i64 24
  store ptr %3, ptr %12, align 8, !tbaa !9
  %13 = getelementptr inbounds nuw i8, ptr %6, i64 32
  store ptr %4, ptr %13, align 8, !tbaa !9
  %14 = getelementptr inbounds nuw i8, ptr %6, i64 40
  store ptr %5, ptr %14, align 8, !tbaa !9
  ret ptr %6
}